target datalayout = "e-m:e-p270:32:32-p271:32:32-p272:64:64-i64:64-i128:128-f80:128-n8:16:32:64-S128"
target triple = "x86_64-pc-linux-gnu"

@testctx = internal global ptr null, align 8
@.str.18 = private unnamed_addr constant [33 x i8] c"../openssl/test/evp_extra_test.c\00", align 1
@lgcyprov = internal global ptr null, align 8
@testpropq = internal global ptr null, align 8
@.str.561 = private unnamed_addr constant [43 x i8] c"Test requires legacy provider to be loaded\00", align 1
@test_evp_bf_default_keylen.algos = internal global [4 x ptr] [ptr @.str.568, ptr @.str.569, ptr @.str.570, ptr @.str.571], align 16
@__const.test_evp_bf_default_keylen.ivlen = private unnamed_addr constant [4 x i32] [i32 0, i32 8, i32 8, i32 8], align 16
@.str.572 = private unnamed_addr constant [58 x i8] c"cipher = EVP_CIPHER_fetch(testctx, algos[idx], testpropq)\00", align 1
@.str.573 = private unnamed_addr constant [34 x i8] c"EVP_CIPHER_get_key_length(cipher)\00", align 1
@.str.574 = private unnamed_addr constant [3 x i8] c"16\00", align 1
@.str.575 = private unnamed_addr constant [33 x i8] c"EVP_CIPHER_get_iv_length(cipher)\00", align 1
@.str.576 = private unnamed_addr constant [11 x i8] c"ivlen[idx]\00", align 1

; Function Attrs: nounwind uwtable
define internal i32 @test_evp_bf_default_keylen(i32 noundef %0) #0 {
  %2 = alloca i32, align 4
  %3 = alloca i32, align 4
  %4 = alloca i32, align 4
  %5 = alloca [4 x i32], align 16
  %6 = alloca ptr, align 8
  %7 = alloca i32, align 4
  store i32 %0, ptr %3, align 4, !tbaa !9
  call void @llvm.lifetime.start.p0(i64 4, ptr %4) #8
  store i32 0, ptr %4, align 4, !tbaa !9
  call void @llvm.lifetime.start.p0(i64 16, ptr %5) #8
  call void @llvm.memcpy.p0.p0.i64(ptr align 16 %5, ptr align 16 @__const.test_evp_bf_default_keylen.ivlen, i64 16, i1 false)
  call void @llvm.lifetime.start.p0(i64 8, ptr %6) #8
  store ptr null, ptr %6, align 8, !tbaa !41
  %8 = load ptr, ptr @lgcyprov, align 8, !tbaa !13
  %9 = icmp eq ptr %8, null
  br i1 %9, label %10, label %12

10:                                               ; preds = %1
  %11 = call i32 (ptr, i32, ptr, ...) @test_skip(ptr noundef @.str.18, i32 noundef 4408, ptr noundef @.str.561)
  store i32 %11, ptr %2, align 4
  store i32 1, ptr %7, align 4
  br label %41

12:                                               ; preds = %1
  %13 = load ptr, ptr @testctx, align 8, !tbaa !11
  %14 = load i32, ptr %3, align 4, !tbaa !9
  %15 = sext i32 %14 to i64
  %16 = getelementptr inbounds [4 x ptr], ptr @test_evp_bf_default_keylen.algos, i64 0, i64 %15
  %17 = load ptr, ptr %16, align 8, !tbaa !4
  %18 = load ptr, ptr @testpropq, align 8, !tbaa !4
  %19 = call ptr @EVP_CIPHER_fetch(ptr noundef %13, ptr noundef %17, ptr noundef %18)
  store ptr %19, ptr %6, align 8, !tbaa !41
  %20 = call i32 @test_ptr(ptr noundef @.str.18, i32 noundef 4410, ptr noundef @.str.572, ptr noundef %19)
  %21 = icmp ne i32 %20, 0
  br i1 %21, label %22, label %36

22:                                               ; preds = %12
  %23 = load ptr, ptr %6, align 8, !tbaa !41
  %24 = call i32 @EVP_CIPHER_get_key_length(ptr noundef %23)
  %25 = call i32 @test_int_eq(ptr noundef @.str.18, i32 noundef 4411, ptr noundef @.str.573, ptr noundef @.str.574, i32 noundef %24, i32 noundef 16)
  %26 = icmp ne i32 %25, 0
  br i1 %26, label %27, label %36

27:                                               ; preds = %22
  %28 = load ptr, ptr %6, align 8, !tbaa !41
  %29 = call i32 @EVP_CIPHER_get_iv_length(ptr noundef %28)
  %30 = load i32, ptr %3, align 4, !tbaa !9
  %31 = sext i32 %30 to i64
  %32 = getelementptr inbounds [4 x i32], ptr %5, i64 0, i64 %31
  %33 = load i32, ptr %32, align 4, !tbaa !9
  %34 = call i32 @test_int_eq(ptr noundef @.str.18, i32 noundef 4412, ptr noundef @.str.575, ptr noundef @.str.576, i32 noundef %29, i32 noundef %33)
  %35 = icmp ne i32 %34, 0
  br i1 %35, label %37, label %36

36:                                               ; preds = %27, %22, %12
  br label %38

37:                                               ; preds = %27
  store i32 1, ptr %4, align 4, !tbaa !9
  br label %38

38:                                               ; preds = %37, %36
  %39 = load ptr, ptr %6, align 8, !tbaa !41
  call void @EVP_CIPHER_free(ptr noundef %39)
  %40 = load i32, ptr %4, align 4, !tbaa !9
  store i32 %40, ptr %2, align 4
  store i32 1, ptr %7, align 4
  br label %41

41:                                               ; preds = %38, %10
  call void @llvm.lifetime.end.p0(i64 8, ptr %6) #8
  call void @llvm.lifetime.end.p0(i64 16, ptr %5) #8
  call void @llvm.lifetime.end.p0(i64 4, ptr %4) #8
  %42 = load i32, ptr %2, align 4
  ret i32 %42
}