; Function Attrs: nounwind uwtable
define internal i32 @test_evp_bf_default_keylen(i32 noundef %0) #1 {
  %2 = load ptr, ptr @lgcyprov, align 8, !tbaa !11
  %3 = icmp eq ptr %2, null
  br i1 %3, label %4, label %6

4:                                                ; preds = %1
  %5 = tail call i32 (ptr, i32, ptr, ...) @test_skip(ptr noundef nonnull @.str.18, i32 noundef 4408, ptr noundef nonnull @.str.561) #9
  br label %22

6:                                                ; preds = %1
  %7 = load ptr, ptr @testctx, align 8, !tbaa !6
  %8 = sext i32 %0 to i64
  %9 = getelementptr inbounds [4 x ptr], ptr @test_evp_bf_default_keylen.algos, i64 0, i64 %8
  %10 = load ptr, ptr %9, align 8, !tbaa !19
  %11 = tail call ptr @EVP_CIPHER_fetch(ptr noundef %7, ptr noundef %10, ptr noundef null) #9
  %12 = tail call i32 @test_ptr(ptr noundef nonnull @.str.18, i32 noundef 4410, ptr noundef nonnull @.str.572, ptr noundef %11) #9
  %.not = icmp eq i32 %12, 0
  br i1 %.not, label %21, label %13

13:                                               ; preds = %6
  %14 = tail call i32 @EVP_CIPHER_get_key_length(ptr noundef %11) #9
  %15 = tail call i32 @test_int_eq(ptr noundef nonnull @.str.18, i32 noundef 4411, ptr noundef nonnull @.str.573, ptr noundef nonnull @.str.574, i32 noundef %14, i32 noundef 16) #9
  %.not7 = icmp eq i32 %15, 0
  br i1 %.not7, label %21, label %16

16:                                               ; preds = %13
  %17 = tail call i32 @EVP_CIPHER_get_iv_length(ptr noundef %11) #9
  %18 = getelementptr inbounds [4 x i32], ptr @__const.test_evp_bf_default_keylen.ivlen, i64 0, i64 %8
  %19 = load i32, ptr %18, align 4, !tbaa !25
  %20 = tail call i32 @test_int_eq(ptr noundef nonnull @.str.18, i32 noundef 4412, ptr noundef nonnull @.str.575, ptr noundef nonnull @.str.576, i32 noundef %17, i32 noundef %19) #9
  %.not8 = icmp ne i32 %20, 0
  %spec.select = zext i1 %.not8 to i32
  br label %21

21:                                               ; preds = %16, %6, %13
  %.0 = phi i32 [ 0, %13 ], [ 0, %6 ], [ %spec.select, %16 ]
  tail call void @EVP_CIPHER_free(ptr noundef %11) #9
  br label %22

22:                                               ; preds = %21, %4
  %.06 = phi i32 [ %5, %4 ], [ %.0, %21 ]
  ret i32 %.06
}